target datalayout = "e-m:e-p270:32:32-p271:32:32-p272:64:64-i64:64-i128:128-f80:128-n8:16:32:64-S128"
target triple = "x86_64-pc-linux-gnu"

@Lscale = internal global float 1.000000e+01, align 4
@cmapmax = internal global i32 0, align 4
@total = internal global i32 0, align 4
@cmap_r = internal global [256 x i8] zeroinitializer, align 16
@cmap_g = internal global [256 x i8] zeroinitializer, align 16
@cmap_b = internal global [256 x i8] zeroinitializer, align 16
@Ltab = internal global [256 x float] zeroinitializer, align 16
@Utab = internal global [256 x float] zeroinitializer, align 16
@Vtab = internal global [256 x float] zeroinitializer, align 16
@Rmat = internal global [3 x [256 x float]] zeroinitializer, align 16
@Gmat = internal global [3 x [256 x float]] zeroinitializer, align 16
@Bmat = internal global [3 x [256 x float]] zeroinitializer, align 16
@whiteXYZ = internal global [3 x float] [float 0x3FEE63F140000000, float 1.000000e+00, float 0x3FF67EF9E0000000], align 4
@uwht = internal global float 0x3FC81C3320000000, align 4
@vwht = internal global float 0x3FDC8F7E40000000, align 4

; Function Attrs: nounwind uwtable
define internal i32 @no_close_color(float noundef %0, float noundef %1, float noundef %2, i32 noundef %3, i32 noundef %4) #0 {
  %6 = alloca i32, align 4
  %7 = alloca float, align 4
  %8 = alloca float, align 4
  %9 = alloca float, align 4
  %10 = alloca i32, align 4
  %11 = alloca i32, align 4
  %12 = alloca i32, align 4
  %13 = alloca float, align 4
  %14 = alloca float, align 4
  store float %0, ptr %7, align 4
  store float %1, ptr %8, align 4
  store float %2, ptr %9, align 4
  store i32 %3, ptr %10, align 4
  store i32 %4, ptr %11, align 4
  store i32 0, ptr %12, align 4
  br label %15

15:                                               ; preds = %60, %5
  %16 = load i32, ptr %12, align 4
  %17 = load i32, ptr %10, align 4
  %18 = icmp slt i32 %16, %17
  br i1 %18, label %19, label %63

19:                                               ; preds = %15
  store float 0.000000e+00, ptr %14, align 4
  %20 = load i32, ptr %12, align 4
  %21 = sext i32 %20 to i64
  %22 = getelementptr inbounds [256 x float], ptr @Ltab, i64 0, i64 %21
  %23 = load float, ptr %22, align 4
  %24 = load float, ptr %7, align 4
  %25 = fsub float %23, %24
  store float %25, ptr %13, align 4
  %26 = load float, ptr %13, align 4
  %27 = load float, ptr %13, align 4
  %28 = fmul float %26, %27
  %29 = load float, ptr @Lscale, align 4
  %30 = load float, ptr %14, align 4
  %31 = call float @llvm.fmuladd.f32(float %28, float %29, float %30)
  store float %31, ptr %14, align 4
  %32 = load i32, ptr %12, align 4
  %33 = sext i32 %32 to i64
  %34 = getelementptr inbounds [256 x float], ptr @Utab, i64 0, i64 %33
  %35 = load float, ptr %34, align 4
  %36 = load float, ptr %8, align 4
  %37 = fsub float %35, %36
  store float %37, ptr %13, align 4
  %38 = load float, ptr %13, align 4
  %39 = load float, ptr %13, align 4
  %40 = load float, ptr %14, align 4
  %41 = call float @llvm.fmuladd.f32(float %38, float %39, float %40)
  store float %41, ptr %14, align 4
  %42 = load i32, ptr %12, align 4
  %43 = sext i32 %42 to i64
  %44 = getelementptr inbounds [256 x float], ptr @Vtab, i64 0, i64 %43
  %45 = load float, ptr %44, align 4
  %46 = load float, ptr %9, align 4
  %47 = fsub float %45, %46
  store float %47, ptr %13, align 4
  %48 = load float, ptr %13, align 4
  %49 = load float, ptr %13, align 4
  %50 = load float, ptr %14, align 4
  %51 = call float @llvm.fmuladd.f32(float %48, float %49, float %50)
  store float %51, ptr %14, align 4
  %52 = load float, ptr %14, align 4
  %53 = fpext float %52 to double
  %54 = load i32, ptr %11, align 4
  %55 = icmp ne i32 %54, 0
  %56 = select i1 %55, double 1.000000e-01, double 7.000000e+00
  %57 = fcmp olt double %53, %56
  br i1 %57, label %58, label %59

58:                                               ; preds = %19
  store i32 0, ptr %6, align 4
  br label %64

59:                                               ; preds = %19
  br label %60

60:                                               ; preds = %59
  %61 = load i32, ptr %12, align 4
  %62 = add nsw i32 %61, 1
  store i32 %62, ptr %12, align 4
  br label %15, !llvm.loop !27

63:                                               ; preds = %15
  store i32 1, ptr %6, align 4
  br label %64

64:                                               ; preds = %63, %58
  %65 = load i32, ptr %6, align 4
  ret i32 %65
}

; Function Attrs: nounwind uwtable
define internal void @LUV_convert(i32 noundef %0, i32 noundef %1, i32 noundef %2, ptr noundef %3, ptr noundef %4, ptr noundef %5) #0 {
  %7 = alloca i32, align 4
  %8 = alloca i32, align 4
  %9 = alloca i32, align 4
  %10 = alloca ptr, align 8
  %11 = alloca ptr, align 8
  %12 = alloca ptr, align 8
  %13 = alloca float, align 4
  %14 = alloca float, align 4
  %15 = alloca float, align 4
  %16 = alloca float, align 4
  %17 = alloca float, align 4
  %18 = alloca float, align 4
  %19 = alloca float, align 4
  %20 = alloca float, align 4
  %21 = alloca float, align 4
  %22 = alloca float, align 4
  store i32 %0, ptr %7, align 4
  store i32 %1, ptr %8, align 4
  store i32 %2, ptr %9, align 4
  store ptr %3, ptr %10, align 8
  store ptr %4, ptr %11, align 8
  store ptr %5, ptr %12, align 8
  %23 = load i32, ptr %7, align 4
  %24 = sext i32 %23 to i64
  %25 = getelementptr inbounds [256 x float], ptr @Rmat, i64 0, i64 %24
  %26 = load float, ptr %25, align 4
  %27 = load i32, ptr %8, align 4
  %28 = sext i32 %27 to i64
  %29 = getelementptr inbounds [256 x float], ptr @Gmat, i64 0, i64 %28
  %30 = load float, ptr %29, align 4
  %31 = fadd float %26, %30
  %32 = load i32, ptr %9, align 4
  %33 = sext i32 %32 to i64
  %34 = getelementptr inbounds [256 x float], ptr @Bmat, i64 0, i64 %33
  %35 = load float, ptr %34, align 4
  %36 = fadd float %31, %35
  store float %36, ptr %13, align 4
  %37 = load i32, ptr %7, align 4
  %38 = sext i32 %37 to i64
  %39 = getelementptr inbounds [256 x float], ptr getelementptr inbounds ([3 x [256 x float]], ptr @Rmat, i64 0, i64 1), i64 0, i64 %38
  %40 = load float, ptr %39, align 4
  %41 = load i32, ptr %8, align 4
  %42 = sext i32 %41 to i64
  %43 = getelementptr inbounds [256 x float], ptr getelementptr inbounds ([3 x [256 x float]], ptr @Gmat, i64 0, i64 1), i64 0, i64 %42
  %44 = load float, ptr %43, align 4
  %45 = fadd float %40, %44
  %46 = load i32, ptr %9, align 4
  %47 = sext i32 %46 to i64
  %48 = getelementptr inbounds [256 x float], ptr getelementptr inbounds ([3 x [256 x float]], ptr @Bmat, i64 0, i64 1), i64 0, i64 %47
  %49 = load float, ptr %48, align 4
  %50 = fadd float %45, %49
  store float %50, ptr %14, align 4
  %51 = load i32, ptr %7, align 4
  %52 = sext i32 %51 to i64
  %53 = getelementptr inbounds [256 x float], ptr getelementptr inbounds ([3 x [256 x float]], ptr @Rmat, i64 0, i64 2), i64 0, i64 %52
  %54 = load float, ptr %53, align 4
  %55 = load i32, ptr %8, align 4
  %56 = sext i32 %55 to i64
  %57 = getelementptr inbounds [256 x float], ptr getelementptr inbounds ([3 x [256 x float]], ptr @Gmat, i64 0, i64 2), i64 0, i64 %56
  %58 = load float, ptr %57, align 4
  %59 = fadd float %54, %58
  %60 = load i32, ptr %9, align 4
  %61 = sext i32 %60 to i64
  %62 = getelementptr inbounds [256 x float], ptr getelementptr inbounds ([3 x [256 x float]], ptr @Bmat, i64 0, i64 2), i64 0, i64 %61
  %63 = load float, ptr %62, align 4
  %64 = fadd float %59, %63
  store float %64, ptr %15, align 4
  %65 = load float, ptr %13, align 4
  %66 = load float, ptr %14, align 4
  %67 = fadd float %65, %66
  %68 = load float, ptr %15, align 4
  %69 = fadd float %67, %68
  store float %69, ptr %16, align 4
  %70 = load float, ptr %16, align 4
  %71 = fcmp une float %70, 0.000000e+00
  br i1 %71, label %72, label %134

72:                                               ; preds = %6
  %73 = load float, ptr %13, align 4
  %74 = load float, ptr %16, align 4
  %75 = fdiv float %73, %74
  store float %75, ptr %17, align 4
  %76 = load float, ptr %14, align 4
  %77 = load float, ptr %16, align 4
  %78 = fdiv float %76, %77
  store float %78, ptr %18, align 4
  %79 = load float, ptr %17, align 4
  %80 = load float, ptr %18, align 4
  %81 = fmul float 1.200000e+01, %80
  %82 = call float @llvm.fmuladd.f32(float -2.000000e+00, float %79, float %81)
  %83 = fadd float %82, 3.000000e+00
  store float %83, ptr %19, align 4
  %84 = load float, ptr %14, align 4
  %85 = load float, ptr getelementptr inbounds ([3 x float], ptr @whiteXYZ, i64 0, i64 1), align 4
  %86 = fdiv float %84, %85
  %87 = fpext float %86 to double
  %88 = call double @pow(double noundef %87, double noundef 0x3FD5555555555555) #6
  %89 = fptrunc double %88 to float
  store float %89, ptr %20, align 4
  %90 = load float, ptr %20, align 4
  %91 = fcmp olt float %90, 0x3FCA7B7840000000
  br i1 %91, label %92, label %98

92:                                               ; preds = %72
  %93 = load float, ptr %14, align 4
  %94 = fmul float 0x408C3A6660000000, %93
  %95 = load float, ptr getelementptr inbounds ([3 x float], ptr @whiteXYZ, i64 0, i64 1), align 4
  %96 = fdiv float %94, %95
  %97 = load ptr, ptr %10, align 8
  store float %96, ptr %97, align 4
  br label %102

98:                                               ; preds = %72
  %99 = load float, ptr %20, align 4
  %100 = call float @llvm.fmuladd.f32(float 1.160000e+02, float %99, float -1.600000e+01)
  %101 = load ptr, ptr %10, align 8
  store float %100, ptr %101, align 4
  br label %102

102:                                              ; preds = %98, %92
  %103 = load float, ptr %19, align 4
  %104 = fcmp une float %103, 0.000000e+00
  br i1 %104, label %105, label %130

105:                                              ; preds = %102
  %106 = load float, ptr %17, align 4
  %107 = fmul float 4.000000e+00, %106
  %108 = load float, ptr %19, align 4
  %109 = fdiv float %107, %108
  store float %109, ptr %21, align 4
  %110 = load float, ptr %18, align 4
  %111 = fmul float 9.000000e+00, %110
  %112 = load float, ptr %19, align 4
  %113 = fdiv float %111, %112
  store float %113, ptr %22, align 4
  %114 = load ptr, ptr %10, align 8
  %115 = load float, ptr %114, align 4
  %116 = fmul float 1.300000e+01, %115
  %117 = load float, ptr %21, align 4
  %118 = load float, ptr @uwht, align 4
  %119 = fsub float %117, %118
  %120 = fmul float %116, %119
  %121 = load ptr, ptr %11, align 8
  store float %120, ptr %121, align 4
  %122 = load ptr, ptr %10, align 8
  %123 = load float, ptr %122, align 4
  %124 = fmul float 1.300000e+01, %123
  %125 = load float, ptr %22, align 4
  %126 = load float, ptr @vwht, align 4
  %127 = fsub float %125, %126
  %128 = fmul float %124, %127
  %129 = load ptr, ptr %12, align 8
  store float %128, ptr %129, align 4
  br label %133

130:                                              ; preds = %102
  %131 = load ptr, ptr %11, align 8
  store float 0.000000e+00, ptr %131, align 4
  %132 = load ptr, ptr %12, align 8
  store float 0.000000e+00, ptr %132, align 4
  br label %133

133:                                              ; preds = %130, %105
  br label %138

134:                                              ; preds = %6
  %135 = load ptr, ptr %10, align 8
  store float 0.000000e+00, ptr %135, align 4
  %136 = load ptr, ptr %11, align 8
  store float 0.000000e+00, ptr %136, align 4
  %137 = load ptr, ptr %12, align 8
  store float 0.000000e+00, ptr %137, align 4
  br label %138

138:                                              ; preds = %134, %133
  ret void
}

; Function Attrs: nounwind uwtable
define internal i32 @add_color(i32 noundef %0, i32 noundef %1, i32 noundef %2, i32 noundef %3) #0 {
  %5 = alloca i32, align 4
  %6 = alloca i32, align 4
  %7 = alloca i32, align 4
  %8 = alloca i32, align 4
  %9 = alloca i32, align 4
  store i32 %0, ptr %6, align 4
  store i32 %1, ptr %7, align 4
  store i32 %2, ptr %8, align 4
  store i32 %3, ptr %9, align 4
  %10 = load i32, ptr @total, align 4
  %11 = load i32, ptr @cmapmax, align 4
  %12 = icmp sge i32 %10, %11
  br i1 %12, label %13, label %14

13:                                               ; preds = %4
  store i32 0, ptr %5, align 4
  br label %75

14:                                               ; preds = %4
  %15 = load i32, ptr %6, align 4
  %16 = trunc i32 %15 to i8
  %17 = load i32, ptr @total, align 4
  %18 = sext i32 %17 to i64
  %19 = getelementptr inbounds [256 x i8], ptr @cmap_r, i64 0, i64 %18
  store i8 %16, ptr %19, align 1
  %20 = load i32, ptr %7, align 4
  %21 = trunc i32 %20 to i8
  %22 = load i32, ptr @total, align 4
  %23 = sext i32 %22 to i64
  %24 = getelementptr inbounds [256 x i8], ptr @cmap_g, i64 0, i64 %23
  store i8 %21, ptr %24, align 1
  %25 = load i32, ptr %8, align 4
  %26 = trunc i32 %25 to i8
  %27 = load i32, ptr @total, align 4
  %28 = sext i32 %27 to i64
  %29 = getelementptr inbounds [256 x i8], ptr @cmap_b, i64 0, i64 %28
  store i8 %26, ptr %29, align 1
  %30 = load i32, ptr @total, align 4
  %31 = sext i32 %30 to i64
  %32 = getelementptr inbounds [256 x i8], ptr @cmap_r, i64 0, i64 %31
  %33 = load i8, ptr %32, align 1
  %34 = zext i8 %33 to i32
  %35 = load i32, ptr @total, align 4
  %36 = sext i32 %35 to i64
  %37 = getelementptr inbounds [256 x i8], ptr @cmap_g, i64 0, i64 %36
  %38 = load i8, ptr %37, align 1
  %39 = zext i8 %38 to i32
  %40 = load i32, ptr @total, align 4
  %41 = sext i32 %40 to i64
  %42 = getelementptr inbounds [256 x i8], ptr @cmap_b, i64 0, i64 %41
  %43 = load i8, ptr %42, align 1
  %44 = zext i8 %43 to i32
  %45 = load i32, ptr @total, align 4
  %46 = sext i32 %45 to i64
  %47 = getelementptr inbounds float, ptr @Ltab, i64 %46
  %48 = load i32, ptr @total, align 4
  %49 = sext i32 %48 to i64
  %50 = getelementptr inbounds float, ptr @Utab, i64 %49
  %51 = load i32, ptr @total, align 4
  %52 = sext i32 %51 to i64
  %53 = getelementptr inbounds float, ptr @Vtab, i64 %52
  call void @LUV_convert(i32 noundef %34, i32 noundef %39, i32 noundef %44, ptr noundef %47, ptr noundef %50, ptr noundef %53)
  %54 = load i32, ptr @total, align 4
  %55 = sext i32 %54 to i64
  %56 = getelementptr inbounds [256 x float], ptr @Ltab, i64 0, i64 %55
  %57 = load float, ptr %56, align 4
  %58 = load i32, ptr @total, align 4
  %59 = sext i32 %58 to i64
  %60 = getelementptr inbounds [256 x float], ptr @Utab, i64 0, i64 %59
  %61 = load float, ptr %60, align 4
  %62 = load i32, ptr @total, align 4
  %63 = sext i32 %62 to i64
  %64 = getelementptr inbounds [256 x float], ptr @Vtab, i64 0, i64 %63
  %65 = load float, ptr %64, align 4
  %66 = load i32, ptr @total, align 4
  %67 = sub nsw i32 %66, 1
  %68 = load i32, ptr %9, align 4
  %69 = call i32 @no_close_color(float noundef %57, float noundef %61, float noundef %65, i32 noundef %67, i32 noundef %68)
  %70 = icmp ne i32 %69, 0
  br i1 %70, label %71, label %74

71:                                               ; preds = %14
  %72 = load i32, ptr @total, align 4
  %73 = add nsw i32 %72, 1
  store i32 %73, ptr @total, align 4
  store i32 1, ptr %5, align 4
  br label %75

74:                                               ; preds = %14
  store i32 0, ptr %5, align 4
  br label %75

75:                                               ; preds = %74, %71, %13
  %76 = load i32, ptr %5, align 4
  ret i32 %76
}