; Function Attrs: nofree nounwind memory(readwrite, argmem: write, inaccessiblemem: write) uwtable
define internal fastcc void @add_color(i32 noundef %0, i32 noundef %1, i32 noundef %2, i32 noundef %3) unnamed_addr #1 {
  %5 = load i32, ptr @total, align 4
  %6 = load i32, ptr @cmapmax, align 4
  %.not = icmp slt i32 %5, %6
  br i1 %.not, label %7, label %no_close_color.exit

7:                                                ; preds = %4
  %8 = trunc i32 %0 to i8
  %9 = sext i32 %5 to i64
  %10 = getelementptr inbounds [256 x i8], ptr @cmap_r, i64 0, i64 %9
  store i8 %8, ptr %10, align 1
  %11 = trunc i32 %1 to i8
  %12 = getelementptr inbounds [256 x i8], ptr @cmap_g, i64 0, i64 %9
  store i8 %11, ptr %12, align 1
  %13 = trunc i32 %2 to i8
  %14 = getelementptr inbounds [256 x i8], ptr @cmap_b, i64 0, i64 %9
  store i8 %13, ptr %14, align 1
  %15 = and i32 %0, 255
  %16 = and i32 %1, 255
  %17 = and i32 %2, 255
  %18 = getelementptr inbounds float, ptr @Ltab, i64 %9
  %19 = getelementptr inbounds float, ptr @Utab, i64 %9
  %20 = getelementptr inbounds float, ptr @Vtab, i64 %9
  %21 = zext nneg i32 %15 to i64
  %22 = getelementptr inbounds [256 x float], ptr @Rmat, i64 0, i64 %21
  %23 = load float, ptr %22, align 4
  %24 = zext nneg i32 %16 to i64
  %25 = getelementptr inbounds [256 x float], ptr @Gmat, i64 0, i64 %24
  %26 = load float, ptr %25, align 4
  %27 = fadd float %23, %26
  %28 = zext nneg i32 %17 to i64
  %29 = getelementptr inbounds [256 x float], ptr @Bmat, i64 0, i64 %28
  %30 = load float, ptr %29, align 4
  %31 = fadd float %27, %30
  %32 = getelementptr inbounds [256 x float], ptr getelementptr inbounds (i8, ptr @Rmat, i64 1024), i64 0, i64 %21
  %33 = load float, ptr %32, align 4
  %34 = getelementptr inbounds [256 x float], ptr getelementptr inbounds (i8, ptr @Gmat, i64 1024), i64 0, i64 %24
  %35 = load float, ptr %34, align 4
  %36 = fadd float %33, %35
  %37 = getelementptr inbounds [256 x float], ptr getelementptr inbounds (i8, ptr @Bmat, i64 1024), i64 0, i64 %28
  %38 = load float, ptr %37, align 4
  %39 = fadd float %36, %38
  %40 = getelementptr inbounds [256 x float], ptr getelementptr inbounds (i8, ptr @Rmat, i64 2048), i64 0, i64 %21
  %41 = load float, ptr %40, align 4
  %42 = getelementptr inbounds [256 x float], ptr getelementptr inbounds (i8, ptr @Gmat, i64 2048), i64 0, i64 %24
  %43 = load float, ptr %42, align 4
  %44 = fadd float %41, %43
  %45 = getelementptr inbounds [256 x float], ptr getelementptr inbounds (i8, ptr @Bmat, i64 2048), i64 0, i64 %28
  %46 = load float, ptr %45, align 4
  %47 = fadd float %44, %46
  %48 = fadd float %31, %39
  %49 = fadd float %48, %47
  %50 = fcmp une float %49, 0.000000e+00
  br i1 %50, label %51, label %75

51:                                               ; preds = %7
  %52 = fdiv float %31, %49
  %53 = fdiv float %39, %49
  %54 = fmul float %53, 1.200000e+01
  %55 = tail call float @llvm.fmuladd.f32(float %52, float -2.000000e+00, float %54)
  %56 = fadd float %55, 3.000000e+00
  %57 = fpext float %39 to double
  %58 = tail call double @pow(double noundef %57, double noundef 0x3FD5555555555555) #11
  %59 = fptrunc double %58 to float
  %60 = fcmp olt float %59, 0x3FCA7B7840000000
  %61 = tail call float @llvm.fmuladd.f32(float %59, float 1.160000e+02, float -1.600000e+01)
  %62 = fmul float %39, 0x408C3A6660000000
  %storemerge.i = select i1 %60, float %62, float %61
  store float %storemerge.i, ptr %18, align 4
  %63 = fcmp une float %56, 0.000000e+00
  br i1 %63, label %64, label %74

64:                                               ; preds = %51
  %65 = fmul float %52, 4.000000e+00
  %66 = fdiv float %65, %56
  %67 = fmul float %53, 9.000000e+00
  %68 = fdiv float %67, %56
  %69 = fmul float %storemerge.i, 1.300000e+01
  %70 = fadd float %66, 0xBFC81C3320000000
  %71 = fmul float %70, %69
  store float %71, ptr %19, align 4
  %72 = fadd float %68, 0xBFDC8F7E40000000
  %73 = fmul float %72, %69
  br label %LUV_convert.exit

74:                                               ; preds = %51
  store float 0.000000e+00, ptr %19, align 4
  br label %LUV_convert.exit

75:                                               ; preds = %7
  store float 0.000000e+00, ptr %18, align 4
  store float 0.000000e+00, ptr %19, align 4
  br label %LUV_convert.exit

LUV_convert.exit:                                 ; preds = %64, %74, %75
  %.sink.i = phi float [ %73, %64 ], [ 0.000000e+00, %74 ], [ 0.000000e+00, %75 ]
  store float %.sink.i, ptr %20, align 4
  %76 = load i32, ptr @total, align 4
  %77 = sext i32 %76 to i64
  %78 = getelementptr inbounds [256 x float], ptr @Ltab, i64 0, i64 %77
  %79 = load float, ptr %78, align 4
  %80 = getelementptr inbounds [256 x float], ptr @Utab, i64 0, i64 %77
  %81 = load float, ptr %80, align 4
  %82 = getelementptr inbounds [256 x float], ptr @Vtab, i64 0, i64 %77
  %83 = load float, ptr %82, align 4
  %84 = icmp sgt i32 %76, 1
  br i1 %84, label %.lr.ph.i, label %.loopexit

.lr.ph.i:                                         ; preds = %LUV_convert.exit
  %85 = add nsw i32 %76, -1
  %86 = load float, ptr @Lscale, align 4
  %.not.i = icmp eq i32 %3, 0
  %87 = select i1 %.not.i, double 7.000000e+00, double 1.000000e-01
  %wide.trip.count.i = zext nneg i32 %85 to i64
  br label %89

88:                                               ; preds = %89
  %indvars.iv.next.i = add nuw nsw i64 %indvars.iv.i, 1
  %exitcond.not.i = icmp eq i64 %indvars.iv.next.i, %wide.trip.count.i
  br i1 %exitcond.not.i, label %.loopexit, label %89, !llvm.loop !11

89:                                               ; preds = %88, %.lr.ph.i
  %indvars.iv.i = phi i64 [ 0, %.lr.ph.i ], [ %indvars.iv.next.i, %88 ]
  %90 = getelementptr inbounds [256 x float], ptr @Ltab, i64 0, i64 %indvars.iv.i
  %91 = load float, ptr %90, align 4
  %92 = fsub float %91, %79
  %93 = fmul float %92, %92
  %94 = tail call float @llvm.fmuladd.f32(float %93, float %86, float 0.000000e+00)
  %95 = getelementptr inbounds [256 x float], ptr @Utab, i64 0, i64 %indvars.iv.i
  %96 = load float, ptr %95, align 4
  %97 = fsub float %96, %81
  %98 = tail call float @llvm.fmuladd.f32(float %97, float %97, float %94)
  %99 = getelementptr inbounds [256 x float], ptr @Vtab, i64 0, i64 %indvars.iv.i
  %100 = load float, ptr %99, align 4
  %101 = fsub float %100, %83
  %102 = tail call float @llvm.fmuladd.f32(float %101, float %101, float %98)
  %103 = fpext float %102 to double
  %104 = fcmp ogt double %87, %103
  br i1 %104, label %no_close_color.exit, label %88

.loopexit:                                        ; preds = %88, %LUV_convert.exit
  %105 = add nsw i32 %76, 1
  store i32 %105, ptr @total, align 4
  br label %no_close_color.exit

no_close_color.exit:                              ; preds = %89, %4, %.loopexit
  ret void
}